; Function Attrs: nounwind uwtable
define noalias nonnull ptr @l_Array_forIn_x27Unsafe_loop___at_Lean_Compiler_LCNF_PassManager_validate___spec__1___lambda__1___boxed(ptr noundef %0, ptr noundef %1, ptr noundef %2, ptr noundef %3, ptr noundef %4, ptr noundef %5) local_unnamed_addr #1 {
  %7 = ptrtoint ptr %1 to i64
  %8 = and i64 %7, 1
  %.not = icmp eq i64 %8, 0
  br i1 %.not, label %9, label %lean_dec.exit15

9:                                                ; preds = %6
  %10 = load i32, ptr %1, align 4, !tbaa !4
  %11 = icmp sgt i32 %10, 1
  br i1 %11, label %12, label %14, !prof !9

12:                                               ; preds = %9
  %13 = add nsw i32 %10, -1
  store i32 %13, ptr %1, align 4, !tbaa !4
  br label %lean_dec.exit15

14:                                               ; preds = %9
  %.not.i = icmp eq i32 %10, 0
  br i1 %.not.i, label %lean_dec.exit15, label %15

15:                                               ; preds = %14
  tail call void @lean_dec_ref_cold(ptr noundef nonnull %1) #6
  br label %lean_dec.exit15

lean_dec.exit15:                                  ; preds = %15, %14, %12, %6
  %16 = getelementptr i8, ptr %0, i64 32
  %.val.i = load i8, ptr %16, align 1, !tbaa !16
  tail call void @lean_inc_heartbeat() #6
  %17 = tail call noalias ptr @mi_malloc_small(i64 noundef 16) #6
  %18 = icmp eq ptr %17, null
  br i1 %18, label %19, label %lean_alloc_ctor.exit.i

19:                                               ; preds = %lean_dec.exit15
  tail call void @lean_internal_panic_out_of_memory() #7
  unreachable

lean_alloc_ctor.exit.i:                           ; preds = %lean_dec.exit15
  %20 = zext i8 %.val.i to i64
  %21 = shl nuw nsw i64 %20, 1
  %22 = or disjoint i64 %21, 1
  %23 = inttoptr i64 %22 to ptr
  %24 = getelementptr inbounds nuw i8, ptr %17, i64 4
  store i32 1, ptr %17, align 4, !tbaa !4
  store i32 16842768, ptr %24, align 4
  %25 = getelementptr inbounds nuw i8, ptr %17, i64 8
  store ptr %23, ptr %25, align 8, !tbaa !10
  tail call void @lean_inc_heartbeat() #6
  %26 = tail call noalias ptr @mi_malloc_small(i64 noundef 24) #6
  %27 = icmp eq ptr %26, null
  br i1 %27, label %28, label %l_Array_forIn_x27Unsafe_loop___at_Lean_Compiler_LCNF_PassManager_validate___spec__1___lambda__1.exit

28:                                               ; preds = %lean_alloc_ctor.exit.i
  tail call void @lean_internal_panic_out_of_memory() #7
  unreachable

l_Array_forIn_x27Unsafe_loop___at_Lean_Compiler_LCNF_PassManager_validate___spec__1___lambda__1.exit: ; preds = %lean_alloc_ctor.exit.i
  %29 = getelementptr inbounds nuw i8, ptr %26, i64 4
  store i32 1, ptr %26, align 4, !tbaa !4
  store i32 131096, ptr %29, align 4
  %30 = getelementptr inbounds nuw i8, ptr %26, i64 8
  store ptr %17, ptr %30, align 8, !tbaa !10
  %31 = getelementptr inbounds nuw i8, ptr %26, i64 16
  store ptr %5, ptr %31, align 8, !tbaa !10
  %32 = ptrtoint ptr %4 to i64
  %33 = and i64 %32, 1
  %.not24 = icmp eq i64 %33, 0
  br i1 %.not24, label %34, label %lean_dec.exit14

34:                                               ; preds = %l_Array_forIn_x27Unsafe_loop___at_Lean_Compiler_LCNF_PassManager_validate___spec__1___lambda__1.exit
  %35 = load i32, ptr %4, align 4, !tbaa !4
  %36 = icmp sgt i32 %35, 1
  br i1 %36, label %37, label %39, !prof !9

37:                                               ; preds = %34
  %38 = add nsw i32 %35, -1
  store i32 %38, ptr %4, align 4, !tbaa !4
  br label %lean_dec.exit14

39:                                               ; preds = %34
  %.not.i16 = icmp eq i32 %35, 0
  br i1 %.not.i16, label %lean_dec.exit14, label %40

40:                                               ; preds = %39
  tail call void @lean_dec_ref_cold(ptr noundef nonnull %4) #6
  br label %lean_dec.exit14

lean_dec.exit14:                                  ; preds = %40, %39, %37, %l_Array_forIn_x27Unsafe_loop___at_Lean_Compiler_LCNF_PassManager_validate___spec__1___lambda__1.exit
  %41 = ptrtoint ptr %3 to i64
  %42 = and i64 %41, 1
  %.not25 = icmp eq i64 %42, 0
  br i1 %.not25, label %43, label %lean_dec.exit13

43:                                               ; preds = %lean_dec.exit14
  %44 = load i32, ptr %3, align 4, !tbaa !4
  %45 = icmp sgt i32 %44, 1
  br i1 %45, label %46, label %48, !prof !9

46:                                               ; preds = %43
  %47 = add nsw i32 %44, -1
  store i32 %47, ptr %3, align 4, !tbaa !4
  br label %lean_dec.exit13

48:                                               ; preds = %43
  %.not.i18 = icmp eq i32 %44, 0
  br i1 %.not.i18, label %lean_dec.exit13, label %49

49:                                               ; preds = %48
  tail call void @lean_dec_ref_cold(ptr noundef nonnull %3) #6
  br label %lean_dec.exit13

lean_dec.exit13:                                  ; preds = %49, %48, %46, %lean_dec.exit14
  %50 = ptrtoint ptr %2 to i64
  %51 = and i64 %50, 1
  %.not26 = icmp eq i64 %51, 0
  br i1 %.not26, label %52, label %lean_dec.exit12

52:                                               ; preds = %lean_dec.exit13
  %53 = load i32, ptr %2, align 4, !tbaa !4
  %54 = icmp sgt i32 %53, 1
  br i1 %54, label %55, label %57, !prof !9

55:                                               ; preds = %52
  %56 = add nsw i32 %53, -1
  store i32 %56, ptr %2, align 4, !tbaa !4
  br label %lean_dec.exit12

57:                                               ; preds = %52
  %.not.i20 = icmp eq i32 %53, 0
  br i1 %.not.i20, label %lean_dec.exit12, label %58

58:                                               ; preds = %57
  tail call void @lean_dec_ref_cold(ptr noundef nonnull %2) #6
  br label %lean_dec.exit12

lean_dec.exit12:                                  ; preds = %58, %57, %55, %lean_dec.exit13
  %59 = ptrtoint ptr %0 to i64
  %60 = and i64 %59, 1
  %.not27 = icmp eq i64 %60, 0
  br i1 %.not27, label %61, label %lean_dec.exit

61:                                               ; preds = %lean_dec.exit12
  %62 = load i32, ptr %0, align 4, !tbaa !4
  %63 = icmp sgt i32 %62, 1
  br i1 %63, label %64, label %66, !prof !9

64:                                               ; preds = %61
  %65 = add nsw i32 %62, -1
  store i32 %65, ptr %0, align 4, !tbaa !4
  br label %lean_dec.exit

66:                                               ; preds = %61
  %.not.i22 = icmp eq i32 %62, 0
  br i1 %.not.i22, label %lean_dec.exit, label %67

67:                                               ; preds = %66
  tail call void @lean_dec_ref_cold(ptr noundef nonnull %0) #6
  br label %lean_dec.exit

lean_dec.exit:                                    ; preds = %67, %66, %64, %lean_dec.exit12
  ret ptr %26
}